(dp1
S'-3.94 -96.0 1.4 4.0 0.017 355.0'
p2
(S'547871'
(lp3
F153
aF135
aF137
aF131
atp4
sS'-2.96 -88.0 2.1 5.5 0.066 335.0'
p5
(S'904605'
(lp6
F175
aF142
aF128
aF122
atp7
sS'1.97 -90.0 0.7 4.0 0.0 355.0'
p8
(S'38478'
(lp9
F177
aF120
aF135
aF208
atp10
sS'-3.94 -96.0 1.4 4.5 0.017 355.0'
p11
(S'153973'
(lp12
F153
aF127
aF131
aF137
atp13
sS'0.99 -96.0 1.4 6.5 0.083 235.0'
p14
(S'260453'
(lp15
F180
aF140
aF129
aF143
atp16
sS'0.99 -94.0 1.4 6.0 0.099 335.0'
p17
(S'479227'
(lp18
F193
aF153
aF223
aF133
atp19
sS'3.94 -96.0 1.4 5.0 0.05 355.0'
p20
(S'279756'
(lp21
F151
aF133
aF124
aF130
atp22
sS'-2.96 -96.0 2.1 5.0 0.05 335.0'
p23
(S'525078'
(lp24
F180
aF170
aF156
aF121
atp25
sS'-0.0 -98.0 1.4 6.5 0.116 335.0'
p26
(S'765041'
(lp27
F158
aF134
aF149
aF132
atp28
sS'2.96 -92.0 2.1 5.0 0.066 335.0'
p29
(S'675030'
(lp30
F188
aF142
aF139
aF155
atp31
sS'-2.96 -94.0 0.7 4.5 0.017 355.0'
p32
(S'775226'
(lp33
F164
aF136
aF129
aF170
atp34
sS'-2.96 -96.0 2.1 4.0 0.0 295.0'
p35
(S'86641'
(lp36
F134
aF123
aF122
aF139
atp37
sS'-2.96 -92.0 1.4 6.5 0.116 235.0'
p38
(S'441224'
(lp39
F199
aF120
aF147
aF121
atp40
sS'2.96 -88.0 2.1 5.0 0.05 175.0'
p41
(S'413064'
(lp42
F159
aF121
aF122
aF122
atp43
sS'1.97 -96.0 1.4 4.5 0.017 95.0'
p44
(S'760852'
(lp45
F127
aF141
aF142
aF130
atp46
sS'-4.93 -94.0 2.1 4.5 0.033 335.0'
p47
(S'129506'
(lp48
F193
aF141
aF152
aF126
atp49
sS'0.99 -100.0 2.1 5.5 0.066 255.0'
p50
(S'240749'
(lp51
F139
aF136
aF121
aF152
atp52
sS'0.99 -102.0 0.7 5.5 0.066 335.0'
p53
(S'723500'
(lp54
F124
aF147
aF214
aF129
atp55
sS'-0.99 -94.0 0.7 4.5 0.05 355.0'
p56
(S'961898'
(lp57
F165
aF131
aF137
aF123
atp58
sS'1.97 -96.0 1.4 5.0 0.033 335.0'
p59
(S'135118'
(lp60
F183
aF166
aF208
aF146
atp61
sS'-0.0 -92.0 2.1 6.5 0.116 235.0'
p62
(S'836119'
(lp63
F199
aF141
aF147
aF145
atp64
sS'-0.0 -100.0 1.4 6.5 0.116 335.0'
p65
(S'482227'
(lp66
F144
aF133
aF144
aF120
atp67
sS'3.94 -92.0 2.1 4.0 -0.017 75.0'
p68
(S'362474'
(lp69
F179
aF137
aF148
aF145
atp70
sS'1.97 -92.0 2.1 4.0 0.017 175.0'
p71
(S'446739'
(lp72
F169
aF164
aF140
aF135
atp73
sS'0.99 -94.0 1.4 6.0 0.099 355.0'
p74
(S'111721'
(lp75
F165
aF128
aF134
aF140
atp76
sS'0.99 -96.0 1.4 5.0 0.066 335.0'
p77
(S'742246'
(lp78
F180
aF163
aF248
aF126
atp79
sS'-0.0 -96.0 2.1 4.5 0.033 355.0'
p80
(S'581064'
(lp81
F153
aF127
aF126
aF140
atp82
sS'-2.96 -92.0 1.4 6.0 0.083 335.0'
p83
(S'922432'
(lp84
F188
aF126
aF154
aF127
atp85
sS'0.99 -98.0 1.4 5.0 0.033 355.0'
p86
(S'114996'
(lp87
F137
aF151
aF135
aF145
atp88
sS'-3.94 -100.0 1.4 6.0 0.066 235.0'
p89
(S'285137'
(lp90
F132
aF134
aF129
aF123
atp91
sS'0.99 -96.0 0.7 4.5 0.0 335.0'
p92
(S'697411'
(lp93
F184
aF132
aF210
aF150
atp94
sS'-0.99 -88.0 0.7 4.5 0.033 75.0'
p95
(S'404864'
(lp96
F166
aF127
aF152
aF129
atp97
sS'1.97 -94.0 2.1 4.5 0.05 15.0'
p98
(S'832743'
(lp99
F169
aF129
aF138
aF149
atp100
sS'-1.97 -94.0 0.7 4.5 0.033 335.0'
p101
(S'157540'
(lp102
F193
aF153
aF131
aF163
atp103
sS'-0.0 -88.0 2.1 4.0 0.017 355.0'
p104
(S'272308'
(lp105
F177
aF122
aF121
aF130
atp106
sS'4.93 -98.0 0.7 5.0 0.05 335.0'
p107
(S'547877'
(lp108
F163
aF127
aF243
aF131
atp109
sS'-3.94 -98.0 0.7 6.5 0.099 235.0'
p110
(S'920408'
(lp111
F164
aF138
aF170
aF142
atp112
sS'3.94 -98.0 1.4 5.5 0.083 335.0'
p113
(S'328049'
(lp114
F160
aF158
aF189
aF140
atp115
sS'-3.94 -98.0 2.1 4.0 0.0 355.0'
p116
(S'954951'
(lp117
F136
aF121
aF124
aF125
atp118
sS'2.96 -88.0 2.1 5.0 0.033 335.0'
p119
(S'750198'
(lp120
F175
aF137
aF125
aF145
atp121
sS'-0.0 -92.0 1.4 4.5 0.033 335.0'
p122
(S'28269'
(lp123
F188
aF122
aF209
aF145
atp124
sS'2.96 -92.0 1.4 4.0 0.017 95.0'
p125
(S'102277'
(lp126
F149
aF126
aF120
aF125
atp127
sS'-2.96 -94.0 0.7 4.0 0.017 355.0'
p128
(S'797681'
(lp129
F164
aF127
aF133
aF182
atp130
sS'1.97 -90.0 1.4 5.0 0.05 335.0'
p131
(S'934780'
(lp132
F186
aF140
aF207
aF150
atp133
sS'0.99 -98.0 2.1 6.5 0.099 235.0'
p134
(S'812790'
(lp135
F164
aF135
aF129
aF132
atp136
sS'-2.96 -94.0 1.4 4.5 0.05 95.0'
p137
(S'243412'
(lp138
F135
aF128
aF126
aF125
atp139
sS'-3.94 -98.0 0.7 4.0 0.033 355.0'
p140
(S'72560'
(lp141
F137
aF124
aF141
aF134
atp142
sS'-1.97 -94.0 0.7 4.0 0.0 95.0'
p143
(S'902691'
(lp144
F136
aF126
aF133
aF142
atp145
sS'1.97 -96.0 1.4 5.5 0.033 335.0'
p146
(S'239250'
(lp147
F183
aF150
aF149
aF131
atp148
sS'-2.96 -92.0 1.4 5.0 0.066 355.0'
p149
(S'579127'
(lp150
F172
aF141
aF121
aF195
atp151
sS'0.99 -94.0 1.4 4.5 0.017 335.0'
p152
(S'339580'
(lp153
F192
aF146
aF214
aF144
atp154
sS'-1.97 -98.0 1.4 4.0 -0.017 335.0'
p155
(S'53221'
(lp156
F169
aF152
aF172
aF125
atp157
sS'1.97 -92.0 1.4 4.0 -0.017 95.0'
p158
(S'208900'
(lp159
F151
aF133
aF126
aF133
atp160
sS'4.93 -96.0 1.4 5.5 0.05 335.0'
p161
(S'209913'
(lp162
F180
aF145
aF169
aF136
atp163
sS'-0.0 -98.0 0.7 7.0 0.133 235.0'
p164
(S'30705'
(lp165
F164
aF145
aF185
aF133
atp166
sS'1.97 -94.0 1.4 5.0 0.066 15.0'
p167
(S'115805'
(lp168
F169
aF125
aF126
aF222
atp169
sS'1.97 -94.0 1.4 4.5 0.017 355.0'
p170
(S'2234'
(lp171
F164
aF139
aF129
aF169
atp172
sS'-0.0 -96.0 2.1 5.5 0.083 355.0'
p173
(S'810228'
(lp174
F149
aF127
aF123
aF147
atp175
sS'2.96 -96.0 2.1 4.5 0.017 75.0'
p176
(S'438491'
(lp177
F185
aF131
aF127
aF124
atp178
sS'1.97 -96.0 1.4 4.0 0.033 355.0'
p179
(S'293244'
(lp180
F153
aF126
aF129
aF155
atp181
sS'-2.96 -100.0 1.4 4.5 0.017 255.0'
p182
(S'803947'
(lp183
F141
aF124
aF128
aF148
atp184
sS'-0.99 -90.0 2.1 4.0 -0.017 75.0'
p185
(S'696877'
(lp186
F179
aF125
aF128
aF140
atp187
sS'-3.94 -98.0 1.4 6.0 0.066 235.0'
p188
(S'884764'
(lp189
F165
aF137
aF129
aF129
atp190
sS'-0.99 -102.0 -0.7 6.5 0.116 155.0'
p191
(S'969339'
(lp192
F152
aF134
aF145
aF200
atp193
sS'-2.96 -94.0 1.4 5.5 0.05 335.0'
p194
(S'543188'
(lp195
F194
aF153
aF152
aF140
atp196
sS'1.97 -96.0 1.4 5.0 0.05 335.0'
p197
(S'591490'
(lp198
F180
aF160
aF243
aF132
atp199
sS'-4.93 -90.0 0.7 4.0 0.017 355.0'
p200
(S'539012'
(lp201
F178
aF125
aF132
aF129
atp202
sS'-4.93 -90.0 2.1 4.5 0.05 355.0'
p203
(S'796144'
(lp204
F177
aF130
aF121
aF123
atp205
sS'-0.0 -94.0 1.4 6.0 0.066 235.0'
p206
(S'230294'
(lp207
F198
aF149
aF153
aF134
atp208
sS'-2.96 -98.0 1.4 4.5 0.033 255.0'
p209
(S'363380'
(lp210
F153
aF122
aF136
aF174
atp211
sS'-0.0 -94.0 1.4 6.0 0.099 235.0'
p212
(S'536811'
(lp213
F197
aF154
aF226
aF131
atp214
sS'4.93 -96.0 2.1 4.5 0.017 355.0'
p215
(S'51534'
(lp216
F153
aF126
aF127
aF135
atp217
sS'1.97 -96.0 2.1 5.0 0.066 355.0'
p218
(S'843776'
(lp219
F150
aF156
aF128
aF136
atp220
sS'-1.97 -90.0 2.1 4.0 -0.017 75.0'
p221
(S'649525'
(lp222
F179
aF128
aF192
aF136
atp223
sS'1.97 -94.0 2.1 6.0 0.083 335.0'
p224
(S'666962'
(lp225
F193
aF158
aF147
aF121
atp226
sS'0.99 -98.0 2.1 5.0 0.066 355.0'
p227
(S'30666'
(lp228
F135
aF166
aF134
aF122
atp229
sS'0.99 -98.0 0.7 6.5 0.116 255.0'
p230
(S'861212'
(lp231
F156
aF139
aF127
aF164
atp232
sS'-1.97 -92.0 0.7 4.0 -0.017 335.0'
p233
(S'189378'
(lp234
F185
aF149
aF211
aF161
atp235
sS'1.97 -94.0 2.1 4.5 0.033 15.0'
p236
(S'539513'
(lp237
F169
aF131
aF130
aF143
atp238
sS'-1.97 -92.0 2.1 4.0 -0.033 75.0'
p239
(S'516934'
(lp240
F179
aF139
aF188
aF136
atp241
sS'0.99 -92.0 2.1 5.0 0.066 335.0'
p242
(S'525798'
(lp243
F188
aF159
aF194
aF134
atp244
sS'1.97 -90.0 2.1 5.0 0.066 15.0'
p245
(S'236478'
(lp246
F159
aF127
aF132
aF150
atp247
sS'-2.96 -90.0 1.4 5.0 0.05 335.0'
p248
(S'373803'
(lp249
F186
aF154
aF190
aF145
atp250
sS'0.99 -96.0 -0.7 6.5 0.116 155.0'
p251
(S'773536'
(lp252
F178
aF123
aF170
aF170
atp253
sS'-3.94 -98.0 2.1 4.5 0.033 355.0'
p254
(S'460778'
(lp255
F137
aF143
aF123
aF132
atp256
sS'1.97 -96.0 1.4 5.0 0.066 355.0'
p257
(S'715340'
(lp258
F150
aF142
aF137
aF163
atp259
sS'0.99 -96.0 1.4 4.0 0.0 335.0'
p260
(S'667102'
(lp261
F184
aF128
aF221
aF143
atp262
sS'0.99 -96.0 2.1 4.5 0.017 355.0'
p263
(S'822610'
(lp264
F153
aF145
aF124
aF138
atp265
sS'-3.94 -94.0 1.4 4.0 0.017 95.0'
p266
(S'718449'
(lp267
F135
aF142
aF133
aF121
atp268
sS'4.93 -96.0 1.4 5.0 0.05 355.0'
p269
(S'507617'
(lp270
F151
aF141
aF159
aF139
atp271
sS'-3.94 -96.0 2.1 6.0 0.083 235.0'
p272
(S'679691'
(lp273
F180
aF131
aF132
aF142
atp274
sS'0.99 -92.0 2.1 5.5 0.05 335.0'
p275
(S'46554'
(lp276
F188
aF173
aF146
aF136
atp277
sS'-0.0 -96.0 2.1 4.5 0.05 355.0'
p278
(S'816119'
(lp279
F151
aF125
aF133
aF133
atp280
sS'0.99 -94.0 1.4 4.0 0.0 95.0'
p281
(S'865289'
(lp282
F136
aF138
aF142
aF121
atp283
sS'-4.93 -94.0 2.1 4.5 0.033 175.0'
p284
(S'434029'
(lp285
F173
aF146
aF162
aF120
atp286
sS'-2.96 -90.0 2.1 4.5 0.05 15.0'
p287
(S'575088'
(lp288
F158
aF123
aF125
aF130
atp289
sS'-1.97 -92.0 2.1 4.5 0.0 75.0'
p290
(S'969287'
(lp291
F178
aF190
aF198
aF128
atp292
sS'-3.94 -96.0 1.4 4.5 0.033 355.0'
p293
(S'466643'
(lp294
F153
aF137
aF139
aF138
atp295
sS'1.97 -100.0 0.7 5.5 0.083 335.0'
p296
(S'612750'
(lp297
F153
aF131
aF253
aF130
atp298
sS'4.93 -100.0 1.4 7.0 0.133 155.0'
p299
(S'698333'
(lp300
F172
aF135
aF128
aF147
atp301
sS'3.94 -94.0 1.4 5.0 0.05 355.0'
p302
(S'333844'
(lp303
F165
aF139
aF121
aF124
atp304
sS'-2.96 -96.0 1.4 4.5 0.033 355.0'
p305
(S'173796'
(lp306
F153
aF134
aF125
aF161
atp307
sS'1.97 -100.0 0.7 5.5 0.066 335.0'
p308
(S'758312'
(lp309
F154
aF122
aF245
aF136
atp310
sS'-0.99 -96.0 1.4 6.0 0.099 255.0'
p311
(S'283374'
(lp312
F167
aF166
aF120
aF159
atp313
sS'0.99 -98.0 0.7 5.0 0.066 335.0'
p314
(S'530758'
(lp315
F162
aF149
aF274
aF120
atp316
sS'-0.99 -98.0 1.4 4.5 0.017 335.0'
p317
(S'661041'
(lp318
F164
aF143
aF128
aF131
atp319
sS'-0.99 -96.0 1.4 4.5 0.05 355.0'
p320
(S'8677'
(lp321
F151
aF131
aF129
aF209
atp322
sS'-4.93 -100.0 1.4 5.0 0.066 255.0'
p323
(S'748079'
(lp324
F139
aF121
aF144
aF143
atp325
sS'-3.94 -102.0 0.7 6.0 0.083 255.0'
p326
(S'698601'
(lp327
F129
aF136
aF120
aF156
atp328
sS'4.93 -98.0 1.4 5.5 0.05 335.0'
p329
(S'95104'
(lp330
F163
aF159
aF164
aF123
atp331
sS'0.99 -96.0 2.1 5.0 0.033 335.0'
p332
(S'362057'
(lp333
F183
aF170
aF163
aF124
atp334
sS'-0.0 -98.0 2.1 4.5 0.05 355.0'
p335
(S'435728'
(lp336
F136
aF140
aF136
aF155
atp337
sS'-2.96 -96.0 1.4 4.0 0.033 335.0'
p338
(S'361762'
(lp339
F183
aF126
aF202
aF123
atp340
sS'-2.96 -90.0 2.1 5.5 0.066 335.0'
p341
(S'307275'
(lp342
F186
aF156
aF138
aF123
atp343
sS'-3.94 -100.0 2.1 5.5 0.083 255.0'
p344
(S'108731'
(lp345
F137
aF125
aF125
aF151
atp346
sS'2.96 -94.0 2.1 5.0 0.033 335.0'
p347
(S'757485'
(lp348
F193
aF160
aF155
aF131
atp349
sS'4.93 -88.0 2.1 5.0 0.05 335.0'
p350
(S'410275'
(lp351
F176
aF139
aF154
aF135
atp352
sS'-1.97 -92.0 2.1 4.5 0.017 75.0'
p353
(S'517000'
(lp354
F179
aF189
aF202
aF122
atp355
sS'-0.0 -94.0 2.1 5.5 0.083 255.0'
p356
(S'263008'
(lp357
F171
aF135
aF132
aF170
atp358
sS'-3.94 -100.0 0.0 6.5 0.099 235.0'
p359
(S'508561'
(lp360
F132
aF121
aF170
aF153
atp361
sS'1.97 -94.0 0.0 6.5 0.116 135.0'
p362
(S'38641'
(lp363
F174
aF121
aF213
aF128
atp364
sS'-1.97 -94.0 0.7 4.5 0.05 335.0'
p365
(S'91978'
(lp366
F194
aF147
aF163
aF136
atp367
sS'4.93 -102.0 2.1 5.5 0.083 275.0'
p368
(S'914071'
(lp369
F142
aF124
aF138
aF129
atp370
sS'-1.97 -92.0 0.7 6.0 0.099 235.0'
p371
(S'849482'
(lp372
F200
aF122
aF175
aF132
atp373
sS'-2.96 -98.0 1.4 5.0 0.033 75.0'
p374
(S'196513'
(lp375
F178
aF146
aF185
aF123
atp376
sS'-3.94 -98.0 1.4 4.5 0.033 355.0'
p377
(S'258369'
(lp378
F137
aF141
aF134
aF146
atp379
sS'-0.99 -92.0 0.7 4.5 0.033 335.0'
p380
(S'157737'
(lp381
F188
aF141
aF195
aF171
atp382
sS'-3.94 -98.0 1.4 5.0 0.066 355.0'
p383
(S'190449'
(lp384
F135
aF137
aF134
aF130
atp385
sS'-4.93 -102.0 0.7 4.5 0.033 335.0'
p386
(S'366255'
(lp387
F124
aF149
aF180
aF126
atp388
sS'-1.97 -96.0 1.4 5.0 0.05 335.0'
p389
(S'390974'
(lp390
F180
aF150
aF187
aF143
atp391
sS'-4.93 -98.0 0.7 4.5 0.05 335.0'
p392
(S'102380'
(lp393
F163
aF145
aF219
aF155
atp394
sS'2.96 -90.0 2.1 6.0 0.099 335.0'
p395
(S'946896'
(lp396
F186
aF136
aF140
aF141
atp397
sS'-1.97 -92.0 2.1 6.0 0.099 335.0'
p398
(S'952740'
(lp399
F188
aF131
aF124
aF127
atp400
sS'-3.94 -102.0 1.4 5.0 0.05 255.0'
p401
(S'523100'
(lp402
F129
aF130
aF130
aF152
atp403
sS'-0.99 -88.0 2.1 5.0 0.066 335.0'
p404
(S'772145'
(lp405
F175
aF130
aF140
aF126
atp406
sS'-0.0 -86.0 2.1 4.5 0.033 175.0'
p407
(S'11491'
(lp408
F146
aF144
aF138
aF133
atp409
sS'-2.96 -92.0 2.1 4.0 0.0 175.0'
p410
(S'964176'
(lp411
F169
aF181
aF138
aF121
atp412
sS'3.94 -86.0 1.4 4.5 0.017 335.0'
p413
(S'842154'
(lp414
F173
aF121
aF133
aF132
atp415
sS'1.97 -94.0 1.4 4.5 0.033 15.0'
p416
(S'867981'
(lp417
F169
aF130
aF128
aF193
atp418
sS'-2.96 -90.0 2.1 5.0 0.066 335.0'
p419
(S'625408'
(lp420
F186
aF148
aF157
aF120
atp421
sS'-2.96 -92.0 1.4 5.0 0.05 335.0'
p422
(S'547560'
(lp423
F188
aF158
aF204
aF129
atp424
sS'-4.93 -98.0 -0.7 6.5 0.099 155.0'
p425
(S'466240'
(lp426
F171
aF133
aF125
aF161
atp427
sS'-0.0 -102.0 2.1 5.5 0.083 275.0'
p428
(S'643198'
(lp429
F142
aF122
aF124
aF153
atp430
sS'-4.93 -94.0 2.1 4.5 0.05 355.0'
p431
(S'414225'
(lp432
F165
aF128
aF130
aF129
atp433
sS'-1.97 -98.0 1.4 4.5 0.033 335.0'
p434
(S'383902'
(lp435
F163
aF157
aF182
aF137
atp436
sS'0.99 -100.0 0.7 6.5 0.099 235.0'
p437
(S'743808'
(lp438
F132
aF149
aF194
aF141
atp439
sS'1.97 -98.0 1.4 5.5 0.083 335.0'
p440
(S'95748'
(lp441
F160
aF157
aF240
aF126
atp442
sS'-2.96 -94.0 0.7 5.0 0.066 275.0'
p443
(S'507887'
(lp444
F160
aF127
aF134
aF244
atp445
sS'1.97 -96.0 0.7 6.5 0.083 235.0'
p446
(S'218247'
(lp447
F180
aF123
aF146
aF121
atp448
sS'0.99 -98.0 1.4 4.0 0.0 355.0'
p449
(S'939863'
(lp450
F136
aF138
aF138
aF138
atp451
sS'-0.0 -98.0 2.1 6.0 0.099 235.0'
p452
(S'240814'
(lp453
F164
aF147
aF168
aF130
atp454
sS'-4.93 -102.0 0.7 5.0 0.066 275.0'
p455
(S'331908'
(lp456
F143
aF135
aF121
aF191
atp457
sS'-1.97 -96.0 0.7 4.5 0.033 75.0'
p458
(S'857003'
(lp459
F184
aF137
aF171
aF137
atp460
sS'-4.93 -90.0 2.1 6.5 0.116 235.0'
p461
(S'495586'
(lp462
F195
aF122
aF120
aF142
atp463
sS'0.99 -96.0 0.7 4.0 0.017 355.0'
p464
(S'599517'
(lp465
F153
aF120
aF158
aF144
atp466
sS'0.99 -98.0 2.1 4.0 0.017 355.0'
p467
(S'99825'
(lp468
F137
aF124
aF126
aF135
atp469
sS'-3.94 -94.0 0.7 5.0 0.033 335.0'
p470
(S'798349'
(lp471
F193
aF129
aF193
aF159
atp472
sS'-0.0 -100.0 1.4 7.0 0.133 235.0'
p473
(S'750767'
(lp474
F127
aF166
aF155
aF121
atp475
sS'-2.96 -96.0 1.4 4.0 0.017 95.0'
p476
(S'694283'
(lp477
F127
aF173
aF123
aF131
atp478
sS'4.93 -92.0 2.1 6.0 0.099 195.0'
p479
(S'13724'
(lp480
F167
aF122
aF154
aF143
atp481
sS'4.93 -94.0 2.1 4.5 0.017 355.0'
p482
(S'32414'
(lp483
F164
aF121
aF122
aF139
atp484
sS'-2.96 -92.0 2.1 5.5 0.083 315.0'
p485
(S'783056'
(lp486
F200
aF122
aF179
aF124
atp487
sS'4.93 -98.0 0.7 5.0 0.033 355.0'
p488
(S'807318'
(lp489
F137
aF130
aF140
aF140
atp490
sS'-1.97 -98.0 0.7 4.5 0.033 75.0'
p491
(S'253912'
(lp492
F178
aF137
aF169
aF128
atp493
sS'1.97 -92.0 1.4 5.0 0.066 95.0'
p494
(S'541298'
(lp495
F148
aF138
aF133
aF120
atp496
sS'-4.93 -94.0 2.1 5.0 0.066 355.0'
p497
(S'23146'
(lp498
F165
aF153
aF122
aF132
atp499
sS'4.93 -96.0 2.1 5.0 0.066 355.0'
p500
(S'740866'
(lp501
F150
aF138
aF146
aF132
atp502
sS'-0.0 -100.0 1.4 6.0 0.099 335.0'
p503
(S'549810'
(lp504
F148
aF164
aF169
aF125
atp505
sS'0.99 -100.0 1.4 6.0 0.066 335.0'
p506
(S'387585'
(lp507
F154
aF144
aF137
aF133
atp508
sS'-3.94 -94.0 0.7 4.5 0.033 335.0'
p509
(S'728377'
(lp510
F193
aF133
aF249
aF141
atp511
sS'0.99 -92.0 0.7 6.5 0.083 235.0'
p512
(S'690984'
(lp513
F198
aF126
aF148
aF140
atp514
sS'-4.93 -94.0 1.4 5.5 0.083 355.0'
p515
(S'447685'
(lp516
F165
aF133
aF123
aF132
atp517
sS'-1.97 -92.0 1.4 4.5 -0.017 335.0'
p518
(S'724744'
(lp519
F185
aF149
aF134
aF125
atp520
sS'-1.97 -92.0 1.4 5.5 0.083 335.0'
p521
(S'518137'
(lp522
F188
aF138
aF185
aF137
atp523
sS'1.97 -102.0 1.4 5.5 0.05 335.0'
p524
(S'133252'
(lp525
F125
aF139
aF167
aF131
atp526
sS'0.99 -100.0 2.1 7.0 0.133 235.0'
p527
(S'90344'
(lp528
F127
aF131
aF125
aF130
atp529
sS'1.97 -96.0 2.1 5.0 0.066 95.0'
p530
(S'422678'
(lp531
F125
aF146
aF127
aF121
atp532
sS'-1.97 -92.0 0.7 4.0 -0.017 95.0'
p533
(S'395794'
(lp534
F151
aF127
aF121
aF134
atp535
sS'-3.94 -94.0 0.7 4.0 0.0 355.0'
p536
(S'271729'
(lp537
F163
aF120
aF131
aF146
atp538
sS'2.96 -90.0 1.4 4.0 -0.017 75.0'
p539
(S'64468'
(lp540
F179
aF178
aF194
aF145
atp541
sS'2.96 -92.0 1.4 4.5 0.033 95.0'
p542
(S'526242'
(lp543
F149
aF130
aF120
aF129
atp544
sS'-1.97 -94.0 0.7 5.5 0.083 235.0'
p545
(S'548493'
(lp546
F197
aF128
aF186
aF135
atp547
sS'-1.97 -88.0 1.4 5.5 0.066 335.0'
p548
(S'459236'
(lp549
F175
aF123
aF142
aF155
atp550
sS'1.97 -94.0 1.4 4.5 0.05 95.0'
p551
(S'173277'
(lp552
F135
aF134
aF123
aF123
atp553
sS'1.97 -94.0 1.4 4.0 0.0 355.0'
p554
(S'574400'
(lp555
F163
aF139
aF127
aF170
atp556
sS'-3.94 -98.0 0.7 4.5 0.0 335.0'
p557
(S'861493'
(lp558
F168
aF134
aF165
aF126
atp559
sS'0.99 -86.0 1.4 4.0 -0.017 155.0'
p560
(S'797092'
(lp561
F178
aF127
aF147
aF134
atp562
sS'-4.93 -92.0 1.4 4.0 0.0 355.0'
p563
(S'663208'
(lp564
F171
aF131
aF122
aF134
atp565
sS'1.97 -94.0 1.4 4.0 -0.017 95.0'
p566
(S'985240'
(lp567
F134
aF150
aF136
aF131
atp568
sS'1.97 -96.0 1.4 5.0 0.05 355.0'
p569
(S'887823'
(lp570
F151
aF138
aF128
aF165
atp571
sS'-0.99 -102.0 0.7 5.0 0.033 335.0'
p572
(S'584286'
(lp573
F124
aF127
aF135
aF147
atp574
sS'-1.97 -94.0 1.4 4.0 -0.017 75.0'
p575
(S'756900'
(lp576
F184
aF124
aF196
aF127
atp577
sS'-3.94 -98.0 0.7 4.0 0.0 335.0'
p578
(S'92038'
(lp579
F168
aF132
aF224
aF142
atp580
sS'-4.93 -98.0 0.7 5.5 0.083 355.0'
p581
(S'711826'
(lp582
F137
aF128
aF136
aF128
atp583
sS'-2.96 -96.0 1.4 5.0 0.066 95.0'
p584
(S'961366'
(lp585
F125
aF142
aF128
aF122
atp586
sS'-3.94 -96.0 0.7 4.5 0.05 335.0'
p587
(S'471600'
(lp588
F180
aF140
aF255
aF123
atp589
sS'1.97 -92.0 1.4 4.0 0.017 355.0'
p590
(S'73818'
(lp591
F171
aF125
aF123
aF199
atp592
sS'1.97 -98.0 1.4 4.5 0.05 355.0'
p593
(S'219431'
(lp594
F136
aF128
aF136
aF141
atp595
sS'-4.93 -92.0 2.1 4.5 0.05 355.0'
p596
(S'516171'
(lp597
F172
aF123
aF127
aF126
atp598
sS'-2.96 -90.0 1.4 5.0 0.066 335.0'
p599
(S'14806'
(lp600
F186
aF145
aF199
aF125
atp601
sS'-3.94 -92.0 2.1 4.5 0.017 335.0'
p602
(S'90109'
(lp603
F188
aF128
aF152
aF125
atp604
sS'-3.94 -96.0 2.1 5.0 0.066 175.0'
p605
(S'163182'
(lp606
F180
aF142
aF167
aF120
atp607
sS'0.99 -92.0 2.1 4.5 0.05 355.0'
p608
(S'275869'
(lp609
F172
aF129
aF142
aF125
atp610
sS'1.97 -94.0 0.7 4.0 -0.033 95.0'
p611
(S'780707'
(lp612
F134
aF126
aF132
aF122
atp613
sS'-2.96 -90.0 0.7 4.0 0.0 95.0'
p614
(S'635610'
(lp615
F164
aF121
aF124
aF145
atp616
sS'-1.97 -94.0 1.4 4.5 0.033 15.0'
p617
(S'917165'
(lp618
F169
aF123
aF128
aF186
atp619
sS'0.99 -98.0 0.0 6.5 0.116 135.0'
p620
(S'169530'
(lp621
F130
aF142
aF248
aF129
atp622
sS'0.99 -98.0 1.4 6.5 0.116 235.0'
p623
(S'406974'
(lp624
F164
aF162
aF193
aF136
atp625
sS'-3.94 -94.0 1.4 5.0 0.066 355.0'
p626
(S'538393'
(lp627
F165
aF124
aF143
aF121
atp628
sS'1.97 -96.0 2.1 5.0 0.05 195.0'
p629
(S'252467'
(lp630
F129
aF123
aF140
aF123
atp631
sS'4.93 -96.0 2.1 5.5 0.083 355.0'
p632
(S'592602'
(lp633
F149
aF133
aF143
aF140
atp634
sS'-2.96 -94.0 1.4 4.5 0.017 95.0'
p635
(S'263189'
(lp636
F135
aF128
aF136
aF126
atp637
sS'0.99 -94.0 0.7 5.5 0.066 355.0'
p638
(S'219559'
(lp639
F165
aF120
aF139
aF159
atp640
sS'1.97 -92.0 1.4 4.0 0.0 95.0'
p641
(S'113129'
(lp642
F150
aF138
aF134
aF137
atp643
sS'-1.97 -90.0 1.4 5.5 0.066 335.0'
p644
(S'153320'
(lp645
F186
aF132
aF159
aF148
atp646
sS'4.93 -96.0 1.4 6.5 0.099 95.0'
p647
(S'110884'
(lp648
F126
aF121
aF145
aF126
atp649
sS'0.99 -96.0 1.4 4.0 0.0 355.0'
p650
(S'180112'
(lp651
F152
aF137
aF144
aF142
atp652
sS'4.93 -98.0 1.4 4.5 0.033 355.0'
p653
(S'308034'
(lp654
F137
aF127
aF149
aF135
atp655
sS'-3.94 -100.0 0.7 5.5 0.066 235.0'
p656
(S'506185'
(lp657
F132
aF163
aF220
aF131
atp658
sS'1.97 -90.0 2.1 4.0 -0.017 75.0'
p659
(S'183788'
(lp660
F179
aF175
aF206
aF132
atp661
sS'-2.96 -94.0 1.4 4.0 0.0 95.0'
p662
(S'489674'
(lp663
F136
aF162
aF127
aF128
atp664
sS'1.97 -92.0 2.1 4.5 0.017 175.0'
p665
(S'896247'
(lp666
F169
aF158
aF141
aF139
atp667
sS'-0.0 -88.0 2.1 4.5 0.017 335.0'
p668
(S'741128'
(lp669
F176
aF127
aF135
aF141
atp670
sS'0.99 -96.0 1.4 4.5 0.017 355.0'
p671
(S'113564'
(lp672
F153
aF139
aF146
aF149
atp673
sS'-3.94 -98.0 1.4 5.5 0.083 355.0'
p674
(S'342762'
(lp675
F137
aF157
aF128
aF128
atp676
sS'-3.94 -90.0 2.1 4.5 0.05 175.0'
p677
(S'649694'
(lp678
F168
aF124
aF156
aF122
atp679
sS'-3.94 -96.0 0.7 5.0 0.05 355.0'
p680
(S'413575'
(lp681
F151
aF132
aF141
aF154
atp682
sS'3.94 -86.0 2.1 4.0 0.0 175.0'
p683
(S'126282'
(lp684
F143
aF152
aF121
aF126
atp685
sS'0.99 -96.0 0.7 4.5 0.0 95.0'
p686
(S'736702'
(lp687
F127
aF127
aF148
aF120
atp688
sS'4.93 -96.0 0.7 6.0 0.099 355.0'
p689
(S'905086'
(lp690
F147
aF124
aF158
aF140
atp691
sS'-2.96 -94.0 1.4 4.0 0.017 95.0'
p692
(S'190397'
(lp693
F135
aF139
aF121
aF127
atp694
sS'0.99 -96.0 0.7 4.0 0.033 355.0'
p695
(S'623015'
(lp696
F153
aF120
aF136
aF145
atp697
sS'0.99 -96.0 0.7 4.5 0.017 335.0'
p698
(S'237291'
(lp699
F184
aF133
aF248
aF154
atp700
sS'-0.0 -94.0 2.1 4.5 0.033 355.0'
p701
(S'31494'
(lp702
F165
aF122
aF125
aF133
atp703
sS'1.97 -98.0 2.1 6.5 0.116 335.0'
p704
(S'845212'
(lp705
F158
aF134
aF145
aF120
atp706
sS'1.97 -94.0 0.7 5.0 0.05 335.0'
p707
(S'984628'
(lp708
F194
aF142
aF267
aF148
atp709
sS'1.97 -92.0 2.1 4.5 0.05 15.0'
p710
(S'56301'
(lp711
F162
aF127
aF142
aF147
atp712
sS'3.94 -100.0 2.1 5.0 0.05 335.0'
p713
(S'687714'
(lp714
F154
aF172
aF138
aF123
atp715
sS'-2.96 -98.0 1.4 5.0 0.066 355.0'
p716
(S'8179'
(lp717
F135
aF127
aF125
aF131
atp718
sS'1.97 -90.0 2.1 4.5 -0.017 75.0'
p719
(S'694076'
(lp720
F179
aF174
aF177
aF124
atp721
sS'0.99 -90.0 2.1 5.0 0.066 355.0'
p722
(S'490938'
(lp723
F178
aF121
aF124
aF129
atp724
sS'1.97 -94.0 2.1 4.0 -0.017 75.0'
p725
(S'481440'
(lp726
F184
aF187
aF208
aF120
atp727
sS'-1.97 -100.0 1.4 5.0 0.05 335.0'
p728
(S'459445'
(lp729
F154
aF135
aF166
aF125
atp730
sS'-3.94 -94.0 1.4 4.0 0.0 355.0'
p731
(S'718144'
(lp732
F163
aF123
aF130
aF142
atp733
sS'-0.0 -98.0 0.7 5.0 0.017 335.0'
p734
(S'951274'
(lp735
F164
aF120
aF157
aF133
atp736
sS'-2.96 -96.0 0.0 4.0 0.017 355.0'
p737
(S'798318'
(lp738
F153
aF122
aF140
aF175
atp739
sS'3.94 -94.0 2.1 4.5 0.0 75.0'
p740
(S'116261'
(lp741
F183
aF204
aF146
aF140
atp742
sS'-1.97 -94.0 1.4 4.5 0.05 255.0'
p743
(S'780388'
(lp744
F173
aF128
aF125
aF192
atp745
sS'-2.96 -100.0 1.4 5.5 0.066 335.0'
p746
(S'173713'
(lp747
F154
aF141
aF174
aF137
atp748
sS'0.99 -98.0 1.4 4.5 0.017 335.0'
p749
(S'392871'
(lp750
F164
aF145
aF206
aF137
atp751
sS'-0.0 -98.0 -0.7 6.5 0.083 155.0'
p752
(S'871182'
(lp753
F170
aF131
aF120
aF152
atp754
sS'2.96 -92.0 2.1 5.0 0.05 335.0'
p755
(S'263089'
(lp756
F188
aF152
aF163
aF140
atp757
sS'-4.93 -98.0 2.1 6.0 0.099 235.0'
p758
(S'729970'
(lp759
F164
aF152
aF145
aF129
atp760
sS'1.97 -94.0 2.1 4.5 0.033 195.0'
p761
(S'292722'
(lp762
F147
aF124
aF123
aF123
atp763
sS'1.97 -96.0 0.7 5.5 0.066 335.0'
p764
(S'295516'
(lp765
F180
aF125
aF255
aF149
atp766
sS'-0.0 -94.0 0.0 6.5 0.099 155.0'
p767
(S'532995'
(lp768
F174
aF126
aF120
aF172
atp769
sS'-1.97 -92.0 2.1 5.0 0.033 175.0'
p770
(S'738727'
(lp771
F169
aF139
aF137
aF120
atp772
sS'1.97 -90.0 1.4 4.0 0.0 95.0'
p773
(S'196575'
(lp774
F164
aF123
aF125
aF131
atp775
sS'-2.96 -94.0 0.7 4.0 0.0 95.0'
p776
(S'24604'
(lp777
F136
aF121
aF140
aF139
atp778
sS'1.97 -88.0 1.4 5.0 0.05 335.0'
p779
(S'824063'
(lp780
F176
aF127
aF200
aF154
atp781
sS'-1.97 -100.0 0.7 5.0 0.033 335.0'
p782
(S'435985'
(lp783
F155
aF128
aF190
aF151
atp784
sS'1.97 -98.0 2.1 5.0 0.033 335.0'
p785
(S'269865'
(lp786
F163
aF165
aF157
aF126
atp787
sS'-2.96 -96.0 0.7 4.5 0.0 335.0'
p788
(S'632894'
(lp789
F184
aF141
aF201
aF152
atp790
sS'-1.97 -96.0 1.4 4.5 0.017 95.0'
p791
(S'858014'
(lp792
F127
aF123
aF121
aF125
atp793
sS'0.99 -92.0 2.1 4.5 0.033 195.0'
p794
(S'808870'
(lp795
F166
aF129
aF121
aF122
atp796
sS'-3.94 -100.0 0.0 6.0 0.066 235.0'
p797
(S'906861'
(lp798
F132
aF136
aF165
aF138
atp799
sS'4.93 -98.0 2.1 6.0 0.099 355.0'
p800
(S'944562'
(lp801
F137
aF165
aF120
aF140
atp802
sS'-0.0 -100.0 -0.7 6.5 0.116 155.0'
p803
(S'706539'
(lp804
F171
aF136
aF146
aF145
atp805
sS'-2.96 -98.0 1.4 4.0 -0.017 335.0'
p806
(S'669509'
(lp807
F169
aF146
aF183
aF124
atp808
sS'4.93 -98.0 2.1 4.5 0.033 355.0'
p809
(S'212621'
(lp810
F137
aF126
aF132
aF144
atp811
sS'-2.96 -90.0 2.1 4.5 0.033 175.0'
p812
(S'786125'
(lp813
F168
aF139
aF128
aF130
atp814
sS'0.99 -98.0 0.7 4.5 0.0 355.0'
p815
(S'306760'
(lp816
F136
aF132
aF131
aF137
atp817
sS'-0.99 -92.0 2.1 4.0 0.0 75.0'
p818
(S'135064'
(lp819
F178
aF123
aF152
aF132
atp820
sS'-2.96 -98.0 1.4 4.5 0.033 335.0'
p821
(S'132616'
(lp822
F163
aF160
aF209
aF135
atp823
sS'0.99 -98.0 2.1 4.0 0.0 355.0'
p824
(S'758508'
(lp825
F136
aF124
aF130
aF133
atp826
s.