(dp1
S'1helix/67_0_3E4G_exttemp.pdb'
p2
(lp3
(S'1'
S'A'
S''
tp4
a(S'2'
S'A'
S'H'
tp5
a(S'3'
S'A'
S'H'
tp6
a(S'4'
S'A'
S'H'
tp7
a(S'5'
S'A'
S'H'
tp8
a(S'6'
S'A'
S'H'
tp9
a(S'7'
S'A'
S'H'
tp10
a(S'8'
S'A'
S'H'
tp11
a(S'9'
S'A'
S'H'
tp12
a(S'10'
S'A'
S''
tp13
asS'1helix/22_0_3E4G_exttemp.pdb'
p14
(lp15
(S'75'
S'A'
S''
tp16
a(S'76'
S'A'
S'G'
tp17
a(S'77'
S'A'
S'G'
tp18
a(S'78'
S'A'
S'G'
tp19
a(S'79'
S'A'
S'G'
tp20
a(S'80'
S'A'
S'G'
tp21
a(S'81'
S'A'
S''
tp22
a(S'82'
S'A'
S''
tp23
asS'1helix/26_0_1A9N_exttemp.pdb'
p24
(lp25
(S'101'
S'A'
S''
tp26
a(S'102'
S'A'
S'G'
tp27
a(S'103'
S'A'
S'G'
tp28
a(S'104'
S'A'
S'G'
tp29
a(S'105'
S'A'
S'G'
tp30
a(S'106'
S'A'
S'G'
tp31
a(S'107'
S'A'
S'G'
tp32
a(S'108'
S'A'
S'G'
tp33
a(S'109'
S'A'
S''
tp34
asS'1helix/58_1_3MOI_exttemp.pdb'
p35
(lp36
(S'178'
S'A'
S''
tp37
a(S'179'
S'A'
S'H'
tp38
a(S'180'
S'A'
S'H'
tp39
a(S'181'
S'A'
S'H'
tp40
a(S'182'
S'A'
S'H'
tp41
a(S'183'
S'A'
S'H'
tp42
a(S'184'
S'A'
S'H'
tp43
a(S'185'
S'A'
S'H'
tp44
a(S'186'
S'A'
S'H'
tp45
a(S'187'
S'A'
S'H'
tp46
a(S'188'
S'A'
S'H'
tp47
a(S'189'
S'A'
S''
tp48
asS'1helix/98_0_1AUK_exttemp.pdb'
p49
(lp50
(S'177'
S'A'
S''
tp51
a(S'178'
S'A'
S'H'
tp52
a(S'179'
S'A'
S'H'
tp53
a(S'180'
S'A'
S'H'
tp54
a(S'181'
S'A'
S'H'
tp55
a(S'182'
S'A'
S'H'
tp56
a(S'183'
S'A'
S'H'
tp57
a(S'184'
S'A'
S'H'
tp58
a(S'185'
S'A'
S'H'
tp59
a(S'186'
S'A'
S'H'
tp60
a(S'187'
S'A'
S'H'
tp61
a(S'188'
S'A'
S'H'
tp62
a(S'189'
S'A'
S'H'
tp63
a(S'190'
S'A'
S'H'
tp64
a(S'191'
S'A'
S'H'
tp65
a(S'192'
S'A'
S'H'
tp66
a(S'193'
S'A'
S'H'
tp67
a(S'194'
S'A'
S''
tp68
asS'1helix/57_0_3V55_exttemp.pdb'
p69
(lp70
(S'23'
S'A'
S''
tp71
a(S'24'
S'A'
S'T'
tp72
a(S'25'
S'A'
S'H'
tp73
a(S'26'
S'A'
S'H'
tp74
a(S'27'
S'A'
S'H'
tp75
a(S'28'
S'A'
S'H'
tp76
a(S'29'
S'A'
S'H'
tp77
a(S'30'
S'A'
S'H'
tp78
a(S'31'
S'A'
S'H'
tp79
a(S'32'
S'A'
S'H'
tp80
a(S'33'
S'A'
S'H'
tp81
a(S'34'
S'A'
S'H'
tp82
a(S'35'
S'A'
S'H'
tp83
a(S'36'
S'A'
S'H'
tp84
a(S'37'
S'A'
S'H'
tp85
a(S'38'
S'A'
S'H'
tp86
a(S'39'
S'A'
S''
tp87
asS'1helix/99_2_4IM6_exttemp.pdb'
p88
(lp89
(S'143'
S'A'
S''
tp90
a(S'144'
S'A'
S'H'
tp91
a(S'145'
S'A'
S'H'
tp92
a(S'146'
S'A'
S'H'
tp93
a(S'147'
S'A'
S'H'
tp94
a(S'148'
S'A'
S'H'
tp95
a(S'149'
S'A'
S'H'
tp96
a(S'150'
S'A'
S'H'
tp97
a(S'151'
S'A'
S'H'
tp98
a(S'152'
S'A'
S'H'
tp99
a(S'153'
S'A'
S'H'
tp100
a(S'154'
S'A'
S''
tp101
asS'1helix/93_1_2FP3_exttemp.pdb'
p102
(lp103
(S'189'
S'A'
S''
tp104
a(S'190'
S'A'
S'H'
tp105
a(S'191'
S'A'
S'H'
tp106
a(S'192'
S'A'
S'H'
tp107
a(S'193'
S'A'
S'H'
tp108
a(S'194'
S'A'
S'H'
tp109
a(S'195'
S'A'
S'H'
tp110
a(S'196'
S'A'
S'H'
tp111
a(S'197'
S'A'
S'H'
tp112
a(S'198'
S'A'
S'H'
tp113
a(S'199'
S'A'
S'H'
tp114
a(S'200'
S'A'
S'H'
tp115
a(S'201'
S'A'
S'H'
tp116
a(S'202'
S'A'
S'H'
tp117
a(S'203'
S'A'
S''
tp118
asS'1helix/18_0_3V55_exttemp.pdb'
p119
(lp120
(S'23'
S'A'
S''
tp121
a(S'24'
S'A'
S'T'
tp122
a(S'25'
S'A'
S'H'
tp123
a(S'26'
S'A'
S'H'
tp124
a(S'27'
S'A'
S'H'
tp125
a(S'28'
S'A'
S'H'
tp126
a(S'29'
S'A'
S'H'
tp127
a(S'30'
S'A'
S'H'
tp128
a(S'31'
S'A'
S'H'
tp129
a(S'32'
S'A'
S'H'
tp130
a(S'33'
S'A'
S'H'
tp131
a(S'34'
S'A'
S'H'
tp132
a(S'35'
S'A'
S'H'
tp133
a(S'36'
S'A'
S'H'
tp134
a(S'37'
S'A'
S'H'
tp135
a(S'38'
S'A'
S''
tp136
asS'1helix/50_0_3S5T_exttemp.pdb'
p137
(lp138
(S'42'
S'A'
S''
tp139
a(S'43'
S'A'
S'H'
tp140
a(S'44'
S'A'
S'H'
tp141
a(S'45'
S'A'
S'H'
tp142
a(S'46'
S'A'
S'H'
tp143
a(S'47'
S'A'
S'H'
tp144
a(S'48'
S'A'
S'H'
tp145
a(S'49'
S'A'
S'H'
tp146
a(S'50'
S'A'
S'H'
tp147
a(S'51'
S'A'
S'H'
tp148
a(S'52'
S'A'
S'H'
tp149
a(S'53'
S'A'
S'H'
tp150
a(S'54'
S'A'
S'H'
tp151
a(S'55'
S'A'
S'H'
tp152
a(S'56'
S'A'
S'H'
tp153
a(S'57'
S'A'
S''
tp154
asS'1helix/54_0_4AF8_exttemp.pdb'
p155
(lp156
(S'128'
S'A'
S''
tp157
a(S'129'
S'A'
S'H'
tp158
a(S'130'
S'A'
S'H'
tp159
a(S'131'
S'A'
S'H'
tp160
a(S'132'
S'A'
S'H'
tp161
a(S'133'
S'A'
S'H'
tp162
a(S'134'
S'A'
S'H'
tp163
a(S'135'
S'A'
S'H'
tp164
a(S'136'
S'A'
S'H'
tp165
a(S'137'
S'A'
S'H'
tp166
a(S'138'
S'A'
S'H'
tp167
a(S'139'
S'A'
S'H'
tp168
a(S'140'
S'A'
S'H'
tp169
a(S'141'
S'A'
S''
tp170
asS'1helix/67_1_3V55_exttemp.pdb'
p171
(lp172
(S'105'
S'A'
S''
tp173
a(S'106'
S'A'
S'H'
tp174
a(S'107'
S'A'
S'H'
tp175
a(S'108'
S'A'
S'H'
tp176
a(S'109'
S'A'
S'H'
tp177
a(S'110'
S'A'
S'H'
tp178
a(S'111'
S'A'
S'H'
tp179
a(S'112'
S'A'
S'H'
tp180
a(S'113'
S'A'
S'T'
tp181
a(S'114'
S'A'
S''
tp182
asS'1helix/24_0_3E4G_exttemp.pdb'
p183
(lp184
(S'99'
S'A'
S''
tp185
a(S'100'
S'A'
S'H'
tp186
a(S'101'
S'A'
S'H'
tp187
a(S'102'
S'A'
S'H'
tp188
a(S'103'
S'A'
S'H'
tp189
a(S'104'
S'A'
S'H'
tp190
a(S'105'
S'A'
S'H'
tp191
a(S'106'
S'A'
S'H'
tp192
a(S'107'
S'A'
S''
tp193
asS'1helix/73_0_2QZU_exttemp.pdb'
p194
(lp195
(S'182'
S'A'
S''
tp196
a(S'183'
S'A'
S'H'
tp197
a(S'184'
S'A'
S'H'
tp198
a(S'185'
S'A'
S'H'
tp199
a(S'186'
S'A'
S'H'
tp200
a(S'187'
S'A'
S'H'
tp201
a(S'188'
S'A'
S'H'
tp202
a(S'189'
S'A'
S'H'
tp203
a(S'190'
S'A'
S'H'
tp204
a(S'191'
S'A'
S'H'
tp205
a(S'192'
S'A'
S'H'
tp206
a(S'193'
S'A'
S'H'
tp207
a(S'194'
S'A'
S'H'
tp208
a(S'195'
S'A'
S'H'
tp209
a(S'196'
S'A'
S'T'
tp210
a(S'197'
S'A'
S'T'
tp211
a(S'198'
S'A'
S''
tp212
a(S'199'
S'A'
S''
tp213
asS'1helix/67_1_3E4G_exttemp.pdb'
p214
(lp215
(S'22'
S'A'
S''
tp216
a(S'23'
S'A'
S'H'
tp217
a(S'24'
S'A'
S'H'
tp218
a(S'25'
S'A'
S'H'
tp219
a(S'26'
S'A'
S'H'
tp220
a(S'27'
S'A'
S'H'
tp221
a(S'28'
S'A'
S'H'
tp222
a(S'29'
S'A'
S'H'
tp223
a(S'30'
S'A'
S'H'
tp224
a(S'31'
S'A'
S'H'
tp225
a(S'32'
S'A'
S'H'
tp226
a(S'33'
S'A'
S''
tp227
asS'1helix/78_1_3MZ0_exttemp.pdb'
p228
(lp229
(S'165'
S'A'
S''
tp230
a(S'166'
S'A'
S'T'
tp231
a(S'167'
S'A'
S'H'
tp232
a(S'168'
S'A'
S'H'
tp233
a(S'169'
S'A'
S'H'
tp234
a(S'170'
S'A'
S'H'
tp235
a(S'171'
S'A'
S'T'
tp236
a(S'172'
S'A'
S'T'
tp237
a(S'173'
S'A'
S'T'
tp238
a(S'174'
S'A'
S'H'
tp239
a(S'175'
S'A'
S'H'
tp240
a(S'176'
S'A'
S'H'
tp241
a(S'177'
S'A'
S'H'
tp242
a(S'178'
S'A'
S'H'
tp243
a(S'179'
S'A'
S'H'
tp244
a(S'180'
S'A'
S'H'
tp245
a(S'181'
S'A'
S'H'
tp246
a(S'182'
S'A'
S'H'
tp247
a(S'183'
S'A'
S'H'
tp248
a(S'184'
S'A'
S''
tp249
asS'1helix/80_1_4AF8_exttemp.pdb'
p250
(lp251
(S'181'
S'A'
S''
tp252
a(S'182'
S'A'
S'H'
tp253
a(S'183'
S'A'
S'H'
tp254
a(S'184'
S'A'
S'H'
tp255
a(S'185'
S'A'
S'H'
tp256
a(S'186'
S'A'
S'H'
tp257
a(S'187'
S'A'
S'H'
tp258
a(S'188'
S'A'
S'H'
tp259
a(S'189'
S'A'
S'T'
tp260
a(S'190'
S'A'
S''
tp261
a(S'191'
S'A'
S''
tp262
asS'1helix/99_0_4IM6_exttemp.pdb'
p263
(lp264
(S'87'
S'A'
S''
tp265
a(S'88'
S'A'
S'H'
tp266
a(S'89'
S'A'
S'H'
tp267
a(S'90'
S'A'
S'H'
tp268
a(S'91'
S'A'
S'H'
tp269
a(S'92'
S'A'
S'H'
tp270
a(S'93'
S'A'
S'H'
tp271
a(S'94'
S'A'
S'H'
tp272
a(S'95'
S'A'
S'H'
tp273
a(S'96'
S'A'
S'H'
tp274
a(S'97'
S'A'
S'H'
tp275
a(S'98'
S'A'
S''
tp276
asS'1helix/50_1_3S5T_exttemp.pdb'
p277
(lp278
(S'66'
S'A'
S''
tp279
a(S'67'
S'A'
S'H'
tp280
a(S'68'
S'A'
S'H'
tp281
a(S'69'
S'A'
S'H'
tp282
a(S'70'
S'A'
S'H'
tp283
a(S'71'
S'A'
S'H'
tp284
a(S'72'
S'A'
S'H'
tp285
a(S'73'
S'A'
S'H'
tp286
a(S'74'
S'A'
S'H'
tp287
a(S'75'
S'A'
S'H'
tp288
a(S'76'
S'A'
S'H'
tp289
a(S'77'
S'A'
S'H'
tp290
a(S'78'
S'A'
S'H'
tp291
a(S'79'
S'A'
S'H'
tp292
a(S'80'
S'A'
S'H'
tp293
a(S'81'
S'A'
S'H'
tp294
a(S'82'
S'A'
S'H'
tp295
a(S'83'
S'A'
S'H'
tp296
a(S'84'
S'A'
S'H'
tp297
a(S'85'
S'A'
S'H'
tp298
a(S'86'
S'A'
S'H'
tp299
a(S'87'
S'A'
S'H'
tp300
a(S'88'
S'A'
S'H'
tp301
a(S'89'
S'A'
S'H'
tp302
a(S'90'
S'A'
S'H'
tp303
a(S'91'
S'A'
S'H'
tp304
a(S'92'
S'A'
S'H'
tp305
a(S'93'
S'A'
S'H'
tp306
a(S'94'
S'A'
S''
tp307
asS'1helix/54_1_4AF8_exttemp.pdb'
p308
(lp309
(S'181'
S'A'
S''
tp310
a(S'182'
S'A'
S'H'
tp311
a(S'183'
S'A'
S'H'
tp312
a(S'184'
S'A'
S'H'
tp313
a(S'185'
S'A'
S'H'
tp314
a(S'186'
S'A'
S'H'
tp315
a(S'187'
S'A'
S'H'
tp316
a(S'188'
S'A'
S'H'
tp317
a(S'189'
S'A'
S'T'
tp318
a(S'190'
S'A'
S''
tp319
a(S'191'
S'A'
S''
tp320
asS'1helix/99_1_4IM6_exttemp.pdb'
p321
(lp322
(S'118'
S'A'
S''
tp323
a(S'119'
S'A'
S'H'
tp324
a(S'120'
S'A'
S'H'
tp325
a(S'121'
S'A'
S'H'
tp326
a(S'122'
S'A'
S'H'
tp327
a(S'123'
S'A'
S'H'
tp328
a(S'124'
S'A'
S'H'
tp329
a(S'125'
S'A'
S'H'
tp330
a(S'126'
S'A'
S''
tp331
asS'1helix/83_0_2WXY_exttemp.pdb'
p332
(lp333
(S'190'
S'C'
S''
tp334
a(S'191'
S'C'
S'H'
tp335
a(S'192'
S'C'
S'H'
tp336
a(S'193'
S'C'
S'H'
tp337
a(S'194'
S'C'
S'H'
tp338
a(S'195'
S'C'
S'H'
tp339
a(S'196'
S'C'
S'H'
tp340
a(S'197'
S'C'
S'H'
tp341
a(S'198'
S'C'
S'H'
tp342
a(S'199'
S'C'
S'H'
tp343
a(S'200'
S'C'
S'H'
tp344
a(S'201'
S'C'
S'H'
tp345
a(S'202'
S'C'
S'H'
tp346
a(S'203'
S'C'
S'H'
tp347
a(S'204'
S'C'
S''
tp348
asS'1helix/22_1_3E4G_exttemp.pdb'
p349
(lp350
(S'99'
S'A'
S''
tp351
a(S'100'
S'A'
S'H'
tp352
a(S'101'
S'A'
S'H'
tp353
a(S'102'
S'A'
S'H'
tp354
a(S'103'
S'A'
S'H'
tp355
a(S'104'
S'A'
S'H'
tp356
a(S'105'
S'A'
S'H'
tp357
a(S'106'
S'A'
S'H'
tp358
a(S'107'
S'A'
S''
tp359
asS'1helix/46_1_4IM6_exttemp.pdb'
p360
(lp361
(S'87'
S'A'
S''
tp362
a(S'88'
S'A'
S'H'
tp363
a(S'89'
S'A'
S'H'
tp364
a(S'90'
S'A'
S'H'
tp365
a(S'91'
S'A'
S'H'
tp366
a(S'92'
S'A'
S'H'
tp367
a(S'93'
S'A'
S'H'
tp368
a(S'94'
S'A'
S'H'
tp369
a(S'95'
S'A'
S'H'
tp370
a(S'96'
S'A'
S'H'
tp371
a(S'97'
S'A'
S'H'
tp372
a(S'98'
S'A'
S''
tp373
asS'1helix/46_0_4IM6_exttemp.pdb'
p374
(lp375
(S'59'
S'A'
S''
tp376
a(S'60'
S'A'
S'H'
tp377
a(S'61'
S'A'
S'H'
tp378
a(S'62'
S'A'
S'H'
tp379
a(S'63'
S'A'
S'H'
tp380
a(S'64'
S'A'
S'H'
tp381
a(S'65'
S'A'
S'H'
tp382
a(S'66'
S'A'
S'H'
tp383
a(S'67'
S'A'
S'H'
tp384
a(S'68'
S'A'
S'H'
tp385
a(S'69'
S'A'
S'H'
tp386
a(S'70'
S'A'
S''
tp387
asS'1helix/63_0_2WXY_exttemp.pdb'
p388
(lp389
(S'190'
S'C'
S''
tp390
a(S'191'
S'C'
S'H'
tp391
a(S'192'
S'C'
S'H'
tp392
a(S'193'
S'C'
S'H'
tp393
a(S'194'
S'C'
S'H'
tp394
a(S'195'
S'C'
S'H'
tp395
a(S'196'
S'C'
S'H'
tp396
a(S'197'
S'C'
S'H'
tp397
a(S'198'
S'C'
S'H'
tp398
a(S'199'
S'C'
S'H'
tp399
a(S'200'
S'C'
S'H'
tp400
a(S'201'
S'C'
S'H'
tp401
a(S'202'
S'C'
S'H'
tp402
a(S'203'
S'C'
S'H'
tp403
a(S'204'
S'C'
S''
tp404
asS'1helix/67_3_3E4G_exttemp.pdb'
p405
(lp406
(S'99'
S'A'
S''
tp407
a(S'100'
S'A'
S'H'
tp408
a(S'101'
S'A'
S'H'
tp409
a(S'102'
S'A'
S'H'
tp410
a(S'103'
S'A'
S'H'
tp411
a(S'104'
S'A'
S'H'
tp412
a(S'105'
S'A'
S'H'
tp413
a(S'106'
S'A'
S'H'
tp414
a(S'107'
S'A'
S''
tp415
asS'1helix/93_0_2FP3_exttemp.pdb'
p416
(lp417
(S'59'
S'A'
S''
tp418
a(S'60'
S'A'
S'H'
tp419
a(S'61'
S'A'
S'H'
tp420
a(S'62'
S'A'
S'H'
tp421
a(S'63'
S'A'
S'H'
tp422
a(S'64'
S'A'
S'H'
tp423
a(S'65'
S'A'
S'H'
tp424
a(S'66'
S'A'
S'H'
tp425
a(S'67'
S'A'
S'H'
tp426
a(S'68'
S'A'
S'H'
tp427
a(S'69'
S'A'
S'H'
tp428
a(S'70'
S'A'
S'H'
tp429
a(S'71'
S'A'
S'H'
tp430
a(S'72'
S'A'
S'H'
tp431
a(S'73'
S'A'
S''
tp432
asS'1helix/98_1_1AUK_exttemp.pdb'
p433
(lp434
(S'226'
S'A'
S''
tp435
a(S'227'
S'A'
S'H'
tp436
a(S'228'
S'A'
S'H'
tp437
a(S'229'
S'A'
S'H'
tp438
a(S'230'
S'A'
S'H'
tp439
a(S'231'
S'A'
S'H'
tp440
a(S'232'
S'A'
S'H'
tp441
a(S'233'
S'A'
S'H'
tp442
a(S'234'
S'A'
S'H'
tp443
a(S'235'
S'A'
S'H'
tp444
a(S'236'
S'A'
S'H'
tp445
a(S'237'
S'A'
S'H'
tp446
a(S'238'
S'A'
S'H'
tp447
a(S'239'
S'A'
S'H'
tp448
a(S'240'
S'A'
S'H'
tp449
a(S'241'
S'A'
S'H'
tp450
a(S'242'
S'A'
S'H'
tp451
a(S'243'
S'A'
S'H'
tp452
a(S'244'
S'A'
S'H'
tp453
a(S'245'
S'A'
S'H'
tp454
a(S'246'
S'A'
S'H'
tp455
a(S'247'
S'A'
S'H'
tp456
a(S'248'
S'A'
S''
tp457
asS'1helix/67_2_3E4G_exttemp.pdb'
p458
(lp459
(S'75'
S'A'
S''
tp460
a(S'76'
S'A'
S'G'
tp461
a(S'77'
S'A'
S'G'
tp462
a(S'78'
S'A'
S'G'
tp463
a(S'79'
S'A'
S'G'
tp464
a(S'80'
S'A'
S'G'
tp465
a(S'81'
S'A'
S''
tp466
a(S'82'
S'A'
S''
tp467
asS'1helix/28_0_1A9N_exttemp.pdb'
p468
(lp469
(S'263'
S'C'
S''
tp470
a(S'264'
S'C'
S'G'
tp471
a(S'265'
S'C'
S'G'
tp472
a(S'266'
S'C'
S'G'
tp473
a(S'267'
S'C'
S'G'
tp474
a(S'268'
S'C'
S'G'
tp475
a(S'269'
S'C'
S'G'
tp476
a(S'270'
S'C'
S'G'
tp477
a(S'271'
S'C'
S''
tp478
asS'1helix/22_2_3E4G_exttemp.pdb'
p479
(lp480
(S'128'
S'A'
S''
tp481
a(S'129'
S'A'
S'H'
tp482
a(S'130'
S'A'
S'H'
tp483
a(S'131'
S'A'
S'H'
tp484
a(S'132'
S'A'
S'H'
tp485
a(S'133'
S'A'
S'H'
tp486
a(S'134'
S'A'
S'T'
tp487
a(S'135'
S'A'
S'T'
tp488
a(S'136'
S'A'
S''
tp489
asS'1helix/67_0_3V55_exttemp.pdb'
p490
(lp491
(S'51'
S'A'
S''
tp492
a(S'52'
S'A'
S'H'
tp493
a(S'53'
S'A'
S'H'
tp494
a(S'54'
S'A'
S'H'
tp495
a(S'55'
S'A'
S'H'
tp496
a(S'56'
S'A'
S'H'
tp497
a(S'57'
S'A'
S'H'
tp498
a(S'58'
S'A'
S'H'
tp499
a(S'59'
S'A'
S'H'
tp500
a(S'60'
S'A'
S'H'
tp501
a(S'61'
S'A'
S'H'
tp502
a(S'62'
S'A'
S'H'
tp503
a(S'63'
S'A'
S'H'
tp504
a(S'64'
S'A'
S''
tp505
asS'1helix/73_1_2QZU_exttemp.pdb'
p506
(lp507
(S'258'
S'A'
S''
tp508
a(S'259'
S'A'
S'H'
tp509
a(S'260'
S'A'
S'H'
tp510
a(S'261'
S'A'
S'H'
tp511
a(S'262'
S'A'
S'H'
tp512
a(S'263'
S'A'
S'H'
tp513
a(S'264'
S'A'
S'H'
tp514
a(S'265'
S'A'
S'H'
tp515
a(S'266'
S'A'
S'H'
tp516
a(S'267'
S'A'
S'H'
tp517
a(S'268'
S'A'
S'H'
tp518
a(S'269'
S'A'
S'H'
tp519
a(S'270'
S'A'
S'H'
tp520
a(S'271'
S'A'
S'H'
tp521
a(S'272'
S'A'
S'H'
tp522
a(S'273'
S'A'
S'H'
tp523
a(S'274'
S'A'
S'H'
tp524
a(S'275'
S'A'
S'H'
tp525
a(S'276'
S'A'
S'H'
tp526
a(S'277'
S'A'
S'H'
tp527
a(S'278'
S'A'
S'H'
tp528
a(S'279'
S'A'
S'H'
tp529
a(S'280'
S'A'
S'H'
tp530
a(S'281'
S'A'
S'H'
tp531
a(S'282'
S'A'
S''
tp532
asS'1helix/24_2_3E4G_exttemp.pdb'
p533
(lp534
(S'154'
S'A'
S''
tp535
a(S'155'
S'A'
S'H'
tp536
a(S'156'
S'A'
S'H'
tp537
a(S'157'
S'A'
S'H'
tp538
a(S'158'
S'A'
S'H'
tp539
a(S'159'
S'A'
S'H'
tp540
a(S'160'
S'A'
S'H'
tp541
a(S'161'
S'A'
S'H'
tp542
a(S'162'
S'A'
S'H'
tp543
a(S'163'
S'A'
S'H'
tp544
a(S'164'
S'A'
S''
tp545
asS'1helix/76_0_2Z63_exttemp.pdb'
p546
(lp547
(S'214'
S'A'
S''
tp548
a(S'215'
S'A'
S'H'
tp549
a(S'216'
S'A'
S'H'
tp550
a(S'217'
S'A'
S'H'
tp551
a(S'218'
S'A'
S'H'
tp552
a(S'219'
S'A'
S'H'
tp553
a(S'220'
S'A'
S'H'
tp554
a(S'221'
S'A'
S'H'
tp555
a(S'222'
S'A'
S'T'
tp556
a(S'223'
S'A'
S''
tp557
asS'1helix/80_0_4AF8_exttemp.pdb'
p558
(lp559
(S'128'
S'A'
S''
tp560
a(S'129'
S'A'
S'H'
tp561
a(S'130'
S'A'
S'H'
tp562
a(S'131'
S'A'
S'H'
tp563
a(S'132'
S'A'
S'H'
tp564
a(S'133'
S'A'
S'H'
tp565
a(S'134'
S'A'
S'H'
tp566
a(S'135'
S'A'
S'H'
tp567
a(S'136'
S'A'
S'H'
tp568
a(S'137'
S'A'
S'H'
tp569
a(S'138'
S'A'
S'H'
tp570
a(S'139'
S'A'
S'H'
tp571
a(S'140'
S'A'
S'H'
tp572
a(S'141'
S'A'
S''
tp573
asS'1helix/24_1_3E4G_exttemp.pdb'
p574
(lp575
(S'128'
S'A'
S''
tp576
a(S'129'
S'A'
S'H'
tp577
a(S'130'
S'A'
S'H'
tp578
a(S'131'
S'A'
S'H'
tp579
a(S'132'
S'A'
S'H'
tp580
a(S'133'
S'A'
S'H'
tp581
a(S'134'
S'A'
S'T'
tp582
a(S'135'
S'A'
S'T'
tp583
a(S'136'
S'A'
S''
tp584
as.